; Function Attrs: mustprogress nounwind uwtable
define hidden void @_ZN24G1ConcurrentRefineThreadC2EP18G1ConcurrentRefinej(ptr noundef nonnull align 8 dereferenceable(1104) %0, ptr noundef %1, i32 noundef %2) unnamed_addr #0 align 2 {
  %4 = alloca %class.FormatBuffer, align 8
  tail call void @_ZN18ConcurrentGCThreadC2Ev(ptr noundef nonnull align 8 dereferenceable(918) %0) #9
  store ptr getelementptr inbounds inrange(-16, 272) (i8, ptr @_ZTV24G1ConcurrentRefineThread, i64 16), ptr %0, align 8
  %5 = getelementptr inbounds i8, ptr %0, i64 920
  %6 = getelementptr inbounds i8, ptr %0, i64 936
  tail call void @llvm.memset.p0.i64(ptr noundef nonnull align 8 dereferenceable(16) %5, i8 0, i64 16, i1 false)
  call void (ptr, ptr, ...) @_ZN12FormatBufferILm256EEC2EPKcz(ptr noundef nonnull align 8 dereferenceable(264) %4, ptr noundef nonnull @.str, i32 noundef %2)
  %7 = load ptr, ptr %4, align 8
  call void @_ZN5MutexC2ENS_4RankEPKcb(ptr noundef nonnull align 8 dereferenceable(104) %6, i32 noundef 21, ptr noundef %7, i1 noundef zeroext true) #9
  %8 = getelementptr inbounds i8, ptr %0, i64 1040
  store i8 0, ptr %8, align 8
  %9 = getelementptr inbounds i8, ptr %0, i64 1048
  call void @_ZN23G1ConcurrentRefineStatsC1Ev(ptr noundef nonnull align 8 dereferenceable(40) %9) #9
  %10 = getelementptr inbounds i8, ptr %0, i64 1088
  store i32 %2, ptr %10, align 8
  %11 = getelementptr inbounds i8, ptr %0, i64 1096
  store ptr %1, ptr %11, align 8
  call void (ptr, ptr, ...) @_ZN11NamedThread8set_nameEPKcz(ptr noundef nonnull align 8 dereferenceable(916) %0, ptr noundef nonnull @.str, i32 noundef %2) #9
  ret void
}